target datalayout = "e-m:e-p270:32:32-p271:32:32-p272:64:64-i64:64-i128:128-f80:128-n8:16:32:64-S128"
target triple = "x86_64-pc-linux-gnu"

%struct._zval_struct = type { %union._zend_value, %union.anon.0, %union.anon.3 }
%union._zend_value = type { i64 }
%union.anon.0 = type { i32 }
%union.anon.3 = type { i32 }
%struct._zend_array = type { %struct._zend_refcounted_h, %union.anon.5, i32, %union.anon.7, i32, i32, i32, i32, i64, ptr }
%struct._zend_refcounted_h = type { i32, %union.anon }
%union.anon = type { i32 }
%union.anon.5 = type { i32 }
%union.anon.7 = type { ptr }
%struct._zend_object = type { %struct._zend_refcounted_h, i32, ptr, ptr, ptr, [1 x %struct._zval_struct] }
%struct._zend_class_entry = type { i8, ptr, %union.anon.4, i32, i32, i32, i32, ptr, ptr, ptr, %struct._zend_array, %struct._zend_array, %struct._zend_array, ptr, ptr, ptr, ptr, ptr, ptr, ptr, ptr, ptr, ptr, ptr, ptr, ptr, ptr, ptr, ptr, ptr, ptr, ptr, %union.anon.8, ptr, ptr, ptr, ptr, i32, i32, %union.anon.9, ptr, ptr, ptr, ptr, i32, ptr, ptr, %union.anon.10 }
%union.anon.4 = type { ptr }
%union.anon.8 = type { ptr }
%union.anon.9 = type { ptr }
%union.anon.10 = type { %struct.anon.11 }
%struct.anon.11 = type { ptr, i32, i32 }
%struct._zend_string = type { %struct._zend_refcounted_h, i64, i64, [1 x i8] }
%struct._zend_reference = type { %struct._zend_refcounted_h, %struct._zval_struct, %union.zend_property_info_source_list }
%union.zend_property_info_source_list = type { ptr }
%struct.anon.1 = type { i8, i8, %union.anon.2 }
%union.anon.2 = type { i16 }
%struct._zend_class_arrayaccess_funcs = type { ptr, ptr, ptr, ptr }

@.str.24 = private unnamed_addr constant [38 x i8] c"Cannot use object of type %s as array\00", align 1

; Function Attrs: nounwind uwtable
define internal void @zend_bad_array_access(ptr noundef %0) #0 {
  %2 = alloca ptr, align 8
  store ptr %0, ptr %2, align 8
  %3 = load ptr, ptr %2, align 8
  %4 = getelementptr inbounds %struct._zend_class_entry, ptr %3, i32 0, i32 1
  %5 = load ptr, ptr %4, align 8
  %6 = getelementptr inbounds %struct._zend_string, ptr %5, i32 0, i32 3
  %7 = getelementptr inbounds [1 x i8], ptr %6, i64 0, i64 0
  call void (ptr, ptr, ...) @zend_throw_error(ptr noundef null, ptr noundef @.str.24, ptr noundef %7)
  ret void
}

; Function Attrs: nounwind uwtable
define void @zend_std_unset_dimension(ptr noundef %0, ptr noundef %1) #0 {
  %3 = alloca ptr, align 8
  %4 = alloca ptr, align 8
  %5 = alloca ptr, align 8
  %6 = alloca i32, align 4
  %7 = alloca ptr, align 8
  %8 = alloca ptr, align 8
  %9 = alloca ptr, align 8
  %10 = alloca ptr, align 8
  %11 = alloca ptr, align 8
  %12 = alloca ptr, align 8
  %13 = alloca ptr, align 8
  %14 = alloca ptr, align 8
  %15 = alloca ptr, align 8
  %16 = alloca ptr, align 8
  %17 = alloca ptr, align 8
  %18 = alloca ptr, align 8
  %19 = alloca ptr, align 8
  %20 = alloca ptr, align 8
  %21 = alloca ptr, align 8
  %22 = alloca %struct._zval_struct, align 8
  %23 = alloca ptr, align 8
  %24 = alloca ptr, align 8
  %25 = alloca ptr, align 8
  %26 = alloca ptr, align 8
  %27 = alloca ptr, align 8
  %28 = alloca i32, align 4
  store ptr %0, ptr %19, align 8
  store ptr %1, ptr %20, align 8
  %29 = load ptr, ptr %19, align 8
  %30 = getelementptr inbounds %struct._zend_object, ptr %29, i32 0, i32 2
  %31 = load ptr, ptr %30, align 8
  store ptr %31, ptr %21, align 8
  %32 = load ptr, ptr %21, align 8
  %33 = getelementptr inbounds %struct._zend_class_entry, ptr %32, i32 0, i32 31
  %34 = load ptr, ptr %33, align 8
  store ptr %34, ptr %23, align 8
  %35 = load ptr, ptr %23, align 8
  %36 = icmp ne ptr %35, null
  %37 = xor i1 %36, true
  %38 = xor i1 %37, true
  %39 = zext i1 %38 to i32
  %40 = sext i32 %39 to i64
  %41 = icmp ne i64 %40, 0
  br i1 %41, label %42, label %160

42:                                               ; preds = %2
  br label %43

43:                                               ; preds = %42
  %44 = load ptr, ptr %20, align 8
  store ptr %44, ptr %24, align 8
  %45 = load ptr, ptr %24, align 8
  %46 = getelementptr inbounds %struct._zval_struct, ptr %45, i32 0, i32 1
  %47 = load i32, ptr %46, align 8
  %48 = and i32 %47, 65280
  %49 = icmp ne i32 %48, 0
  br i1 %49, label %50, label %99

50:                                               ; preds = %43
  %51 = load ptr, ptr %24, align 8
  %52 = getelementptr inbounds %struct._zval_struct, ptr %51, i32 0, i32 1
  %53 = load i32, ptr %52, align 8
  %54 = and i32 %53, 255
  %55 = icmp eq i32 %54, 10
  %56 = xor i1 %55, true
  %57 = xor i1 %56, true
  %58 = zext i1 %57 to i32
  %59 = sext i32 %58 to i64
  %60 = icmp ne i64 %59, 0
  br i1 %60, label %61, label %85

61:                                               ; preds = %50
  %62 = load ptr, ptr %24, align 8
  %63 = getelementptr inbounds %struct._zval_struct, ptr %62, i32 0, i32 0
  %64 = load ptr, ptr %63, align 8
  %65 = getelementptr inbounds %struct._zend_reference, ptr %64, i32 0, i32 1
  store ptr %65, ptr %24, align 8
  %66 = load ptr, ptr %24, align 8
  %67 = getelementptr inbounds %struct._zval_struct, ptr %66, i32 0, i32 1
  %68 = load i32, ptr %67, align 8
  %69 = and i32 %68, 65280
  %70 = icmp ne i32 %69, 0
  br i1 %70, label %71, label %84

71:                                               ; preds = %61
  %72 = load ptr, ptr %24, align 8
  store ptr %72, ptr %17, align 8
  %73 = load ptr, ptr %17, align 8
  %74 = getelementptr inbounds %struct._zval_struct, ptr %73, i32 0, i32 1
  %75 = getelementptr inbounds %struct.anon.1, ptr %74, i32 0, i32 1
  %76 = load i8, ptr %75, align 1
  %77 = zext i8 %76 to i32
  %78 = icmp ne i32 %77, 0
  call void @llvm.assume(i1 %78)
  %79 = load ptr, ptr %17, align 8
  %80 = load ptr, ptr %79, align 8
  store ptr %80, ptr %16, align 8
  %81 = load ptr, ptr %16, align 8
  %82 = load i32, ptr %81, align 4
  %83 = add i32 %82, 1
  store i32 %83, ptr %81, align 4
  br label %84

84:                                               ; preds = %71, %61
  br label %98

85:                                               ; preds = %50
  %86 = load ptr, ptr %24, align 8
  store ptr %86, ptr %18, align 8
  %87 = load ptr, ptr %18, align 8
  %88 = getelementptr inbounds %struct._zval_struct, ptr %87, i32 0, i32 1
  %89 = getelementptr inbounds %struct.anon.1, ptr %88, i32 0, i32 1
  %90 = load i8, ptr %89, align 1
  %91 = zext i8 %90 to i32
  %92 = icmp ne i32 %91, 0
  call void @llvm.assume(i1 %92)
  %93 = load ptr, ptr %18, align 8
  %94 = load ptr, ptr %93, align 8
  store ptr %94, ptr %15, align 8
  %95 = load ptr, ptr %15, align 8
  %96 = load i32, ptr %95, align 4
  %97 = add i32 %96, 1
  store i32 %97, ptr %95, align 4
  br label %98

98:                                               ; preds = %85, %84
  br label %99

99:                                               ; preds = %98, %43
  br label %100

100:                                              ; preds = %99
  store ptr %22, ptr %25, align 8
  %101 = load ptr, ptr %24, align 8
  store ptr %101, ptr %26, align 8
  %102 = load ptr, ptr %26, align 8
  %103 = getelementptr inbounds %struct._zval_struct, ptr %102, i32 0, i32 0
  %104 = load ptr, ptr %103, align 8
  store ptr %104, ptr %27, align 8
  %105 = load ptr, ptr %26, align 8
  %106 = getelementptr inbounds %struct._zval_struct, ptr %105, i32 0, i32 1
  %107 = load i32, ptr %106, align 8
  store i32 %107, ptr %28, align 4
  br label %108

108:                                              ; preds = %100
  %109 = load ptr, ptr %27, align 8
  %110 = load ptr, ptr %25, align 8
  %111 = getelementptr inbounds %struct._zval_struct, ptr %110, i32 0, i32 0
  store ptr %109, ptr %111, align 8
  %112 = load i32, ptr %28, align 4
  %113 = load ptr, ptr %25, align 8
  %114 = getelementptr inbounds %struct._zval_struct, ptr %113, i32 0, i32 1
  store i32 %112, ptr %114, align 8
  br label %115

115:                                              ; preds = %108
  br label %116

116:                                              ; preds = %115
  br label %117

117:                                              ; preds = %116
  %118 = load ptr, ptr %19, align 8
  %119 = getelementptr inbounds %struct._zend_object, ptr %118, i32 0, i32 0
  store ptr %119, ptr %14, align 8
  %120 = load ptr, ptr %14, align 8
  %121 = load i32, ptr %120, align 4
  %122 = add i32 %121, 1
  store i32 %122, ptr %120, align 4
  %123 = load ptr, ptr %23, align 8
  %124 = getelementptr inbounds %struct._zend_class_arrayaccess_funcs, ptr %123, i32 0, i32 3
  %125 = load ptr, ptr %124, align 8
  %126 = load ptr, ptr %19, align 8
  store ptr %125, ptr %8, align 8
  store ptr %126, ptr %9, align 8
  store ptr null, ptr %10, align 8
  store ptr %22, ptr %11, align 8
  %127 = load ptr, ptr %8, align 8
  %128 = load ptr, ptr %9, align 8
  %129 = load ptr, ptr %10, align 8
  %130 = load ptr, ptr %11, align 8
  store ptr %127, ptr %3, align 8
  store ptr %128, ptr %4, align 8
  store ptr %129, ptr %5, align 8
  store i32 1, ptr %6, align 4
  store ptr %130, ptr %7, align 8
  %131 = load ptr, ptr %3, align 8
  %132 = load ptr, ptr %4, align 8
  %133 = load ptr, ptr %4, align 8
  %134 = getelementptr inbounds %struct._zend_object, ptr %133, i32 0, i32 2
  %135 = load ptr, ptr %134, align 8
  %136 = load ptr, ptr %5, align 8
  %137 = load i32, ptr %6, align 4
  %138 = load ptr, ptr %7, align 8
  call void @zend_call_known_function(ptr noundef %131, ptr noundef %132, ptr noundef %135, ptr noundef %136, i32 noundef %137, ptr noundef %138, ptr noundef null) #10
  %139 = load ptr, ptr %19, align 8
  store ptr %139, ptr %13, align 8
  %140 = load ptr, ptr %13, align 8
  store ptr %140, ptr %12, align 8
  %141 = load ptr, ptr %12, align 8
  %142 = load i32, ptr %141, align 4
  %143 = icmp ugt i32 %142, 0
  call void @llvm.assume(i1 %143)
  %144 = load ptr, ptr %12, align 8
  %145 = load i32, ptr %144, align 4
  %146 = add i32 %145, -1
  store i32 %146, ptr %144, align 4
  %147 = icmp eq i32 %146, 0
  br i1 %147, label %148, label %150

148:                                              ; preds = %117
  %149 = load ptr, ptr %13, align 8
  call void @zend_objects_store_del(ptr noundef %149) #10
  br label %159

150:                                              ; preds = %117
  %151 = load ptr, ptr %13, align 8
  %152 = getelementptr inbounds %struct._zend_refcounted_h, ptr %151, i32 0, i32 1
  %153 = load i32, ptr %152, align 4
  %154 = and i32 %153, -1008
  %155 = icmp eq i32 %154, 0
  br i1 %155, label %156, label %158

156:                                              ; preds = %150
  %157 = load ptr, ptr %13, align 8
  call void @gc_possible_root(ptr noundef %157) #10
  br label %158

158:                                              ; preds = %156, %150
  br label %159

159:                                              ; preds = %158, %148
  call void @zval_ptr_dtor(ptr noundef %22)
  br label %162

160:                                              ; preds = %2
  %161 = load ptr, ptr %21, align 8
  call void @zend_bad_array_access(ptr noundef %161)
  br label %162

162:                                              ; preds = %160, %159
  ret void
}