; Function Attrs: nounwind uwtable
define void @zend_std_unset_dimension(ptr noundef %0, ptr nocapture noundef readonly %1) #0 {
  %3 = alloca %struct._zval_struct, align 8
  %4 = getelementptr inbounds i8, ptr %0, i64 16
  %5 = load ptr, ptr %4, align 8
  %6 = getelementptr inbounds i8, ptr %5, i64 376
  %7 = load ptr, ptr %6, align 8
  %.not = icmp eq ptr %7, null
  br i1 %.not, label %48, label %8

8:                                                ; preds = %2
  %9 = getelementptr inbounds i8, ptr %1, i64 8
  %10 = load i32, ptr %9, align 8
  %11 = and i32 %10, 65280
  %.not45 = icmp eq i32 %11, 0
  br i1 %.not45, label %26, label %12

12:                                               ; preds = %8
  %13 = and i32 %10, 255
  %14 = icmp eq i32 %13, 10
  br i1 %14, label %15, label %.sink.split

15:                                               ; preds = %12
  %16 = load ptr, ptr %1, align 8
  %17 = getelementptr inbounds i8, ptr %16, i64 8
  %18 = getelementptr inbounds i8, ptr %16, i64 16
  %19 = load i32, ptr %18, align 8
  %20 = and i32 %19, 65280
  %.not46 = icmp eq i32 %20, 0
  br i1 %.not46, label %26, label %.sink.split

.sink.split:                                      ; preds = %12, %15
  %.sink = phi i32 [ %19, %15 ], [ %10, %12 ]
  %.sink49 = phi ptr [ %17, %15 ], [ %1, %12 ]
  %21 = and i32 %.sink, 65280
  %22 = icmp ne i32 %21, 0
  tail call void @llvm.assume(i1 %22)
  %23 = load ptr, ptr %.sink49, align 8
  %24 = load i32, ptr %23, align 4
  %25 = add i32 %24, 1
  store i32 %25, ptr %23, align 4
  br label %26

26:                                               ; preds = %.sink.split, %8, %15
  %.0 = phi ptr [ %17, %15 ], [ %1, %8 ], [ %.sink49, %.sink.split ]
  %27 = load ptr, ptr %.0, align 8
  %28 = getelementptr inbounds i8, ptr %.0, i64 8
  %29 = load i32, ptr %28, align 8
  store ptr %27, ptr %3, align 8
  %30 = getelementptr inbounds i8, ptr %3, i64 8
  store i32 %29, ptr %30, align 8
  %31 = load i32, ptr %0, align 4
  %32 = add i32 %31, 1
  store i32 %32, ptr %0, align 4
  %33 = getelementptr inbounds i8, ptr %7, i64 24
  %34 = load ptr, ptr %33, align 8
  %35 = load ptr, ptr %4, align 8
  call void @zend_call_known_function(ptr noundef %34, ptr noundef nonnull %0, ptr noundef %35, ptr noundef null, i32 noundef 1, ptr noundef nonnull %3, ptr noundef null) #15
  %36 = load i32, ptr %0, align 4
  %37 = icmp ne i32 %36, 0
  call void @llvm.assume(i1 %37)
  %38 = add i32 %36, -1
  store i32 %38, ptr %0, align 4
  %39 = icmp eq i32 %38, 0
  br i1 %39, label %40, label %41

40:                                               ; preds = %26
  call void @zend_objects_store_del(ptr noundef nonnull %0) #15
  br label %47

41:                                               ; preds = %26
  %42 = getelementptr inbounds i8, ptr %0, i64 4
  %43 = load i32, ptr %42, align 4
  %44 = and i32 %43, -1008
  %45 = icmp eq i32 %44, 0
  br i1 %45, label %46, label %47

46:                                               ; preds = %41
  call void @gc_possible_root(ptr noundef nonnull %0) #15
  br label %47

47:                                               ; preds = %41, %46, %40
  call void @zval_ptr_dtor(ptr noundef nonnull %3) #15
  br label %51

48:                                               ; preds = %2
  %49 = getelementptr i8, ptr %5, i64 8
  %.val = load ptr, ptr %49, align 8
  %50 = getelementptr inbounds i8, ptr %.val, i64 24
  tail call void (ptr, ptr, ...) @zend_throw_error(ptr noundef null, ptr noundef nonnull @.str.24, ptr noundef nonnull %50) #15
  br label %51

51:                                               ; preds = %48, %47
  ret void
}